target datalayout = "e-m:e-p270:32:32-p271:32:32-p272:64:64-i64:64-i128:128-f80:128-n8:16:32:64-S128"
target triple = "x86_64-unknown-linux-gnu"

%struct.MemoryRegion = type { %struct.Object, i8, i8, i8, i8, i8, i8, i8, i8, i8, i8, ptr, ptr, ptr, ptr, ptr, ptr, i32, i128, i64, ptr, i64, i8, i8, i8, i8, i8, ptr, i64, i32, %union.anon, %union.anon.0, %union.anon.1, ptr, i32, ptr, ptr, i8 }
%struct.Object = type { ptr, ptr, ptr, i32, ptr }
%union.anon = type { %struct.QTailQLink }
%struct.QTailQLink = type { ptr, ptr }
%union.anon.0 = type { %struct.QTailQLink }
%union.anon.1 = type { %struct.QTailQLink }
%struct.VFIOPCIDevice = type { %struct.PCIDevice, %struct.VFIODevice, %struct.VFIOINTx, i32, ptr, i64, i32, i64, ptr, i32, ptr, ptr, i32, i32, [6 x %struct.VFIOBAR], ptr, ptr, %struct.PCIHostDeviceAddress, %struct.QemuUUID, %struct.EventNotifier, %struct.EventNotifier, ptr, i32, i32, i32, i32, i32, i32, i32, i32, i32, i32, i32, i8, i8, i8, i8, i8, i8, i8, i8, i8, i8, i8, i8, i8, i8, i32, i8, i8, ptr, %struct.Notifier }
%struct.PCIDevice = type { %struct.DeviceState, i8, i8, ptr, ptr, ptr, ptr, ptr, i32, %struct.PCIReqIDCache, [64 x i8], [7 x %struct.PCIIORegion], %struct.AddressSpace, %struct.MemoryRegion, %struct.MemoryRegion, ptr, ptr, [3 x ptr], i8, i8, i32, i8, i32, ptr, ptr, ptr, ptr, ptr, ptr, %struct.MemoryRegion, %struct.MemoryRegion, %struct.MemoryRegion, ptr, i8, i32, i8, %struct.PCIExpressDevice, ptr, ptr, i32, i8, %struct.MemoryRegion, i32, ptr, ptr, ptr, ptr, ptr, i32 }
%struct.DeviceState = type { %struct.Object, ptr, ptr, i8, i8, i64, ptr, i32, i8, ptr, %struct.NamedGPIOListHead, %struct.NamedClockListHead, %struct.BusStateHead, i32, i32, i32, %struct.ResettableState, ptr, %struct.MemReentrancyGuard }
%struct.NamedGPIOListHead = type { ptr }
%struct.NamedClockListHead = type { ptr }
%struct.BusStateHead = type { ptr }
%struct.ResettableState = type { i32, i8, i8 }
%struct.MemReentrancyGuard = type { i8 }
%struct.PCIReqIDCache = type { ptr, i32 }
%struct.PCIIORegion = type { i64, i64, i8, ptr, ptr }
%struct.AddressSpace = type { %struct.rcu_head, ptr, ptr, ptr, i32, i32, ptr, %union.anon.4, %union.anon.5 }
%struct.rcu_head = type { ptr, ptr }
%union.anon.4 = type { %struct.QTailQLink }
%union.anon.5 = type { %struct.QTailQLink }
%struct.PCIExpressDevice = type { i8, i8, i8, i16, %struct.PCIEAERLog, i16, i16, i16, %struct.PCIESriovPF, %struct.PCIESriovVF }
%struct.PCIEAERLog = type { i16, i16, ptr }
%struct.PCIESriovPF = type { i16, [7 x i8], ptr, ptr }
%struct.PCIESriovVF = type { ptr, i16 }
%struct.VFIODevice = type { %struct.anon.6, %struct.anon.7, %struct.anon.8, ptr, ptr, ptr, ptr, ptr, i32, i32, i8, i8, i8, i8, i32, ptr, i32, i32, i32, ptr, ptr, i32, i8, i8 }
%struct.anon.6 = type { ptr, ptr }
%struct.anon.7 = type { ptr, ptr }
%struct.anon.8 = type { ptr, ptr }
%struct.VFIOINTx = type { i8, i8, i8, %struct.EventNotifier, %struct.EventNotifier, %struct.PCIINTxRoute, i32, ptr }
%struct.PCIINTxRoute = type { i32, i32 }
%struct.VFIOBAR = type { %struct.VFIORegion, ptr, i64, i8, i8, i8, %struct.anon.9 }
%struct.VFIORegion = type { ptr, i64, ptr, i64, i32, i32, ptr, i8 }
%struct.anon.9 = type { ptr }
%struct.PCIHostDeviceAddress = type { i32, i32, i32, i32 }
%struct.QemuUUID = type { %union.anon.10 }
%union.anon.10 = type { %struct.anon.11 }
%struct.anon.11 = type { i32, i16, i16, i8, i8, [6 x i8] }
%struct.EventNotifier = type { i32, i32, i8 }
%struct.Notifier = type { ptr, %struct.anon.12 }
%struct.anon.12 = type { ptr, ptr }

; Function Attrs: nounwind sspstrong uwtable
define internal void @vfio_bars_exit(ptr noundef %vdev) #0 {
entry:
  %vdev.addr = alloca ptr, align 8
  %i = alloca i32, align 4
  %bar = alloca ptr, align 8
  store ptr %vdev, ptr %vdev.addr, align 8
  store i32 0, ptr %i, align 4
  br label %for.cond

for.cond:                                         ; preds = %for.inc, %entry
  %0 = load i32, ptr %i, align 4
  %cmp = icmp slt i32 %0, 6
  br i1 %cmp, label %for.body, label %for.end

for.body:                                         ; preds = %for.cond
  %1 = load ptr, ptr %vdev.addr, align 8
  %bars = getelementptr inbounds %struct.VFIOPCIDevice, ptr %1, i32 0, i32 14
  %2 = load i32, ptr %i, align 4
  %idxprom = sext i32 %2 to i64
  %arrayidx = getelementptr [6 x %struct.VFIOBAR], ptr %bars, i64 0, i64 %idxprom
  store ptr %arrayidx, ptr %bar, align 8
  %3 = load ptr, ptr %vdev.addr, align 8
  %4 = load i32, ptr %i, align 4
  call void @vfio_bar_quirk_exit(ptr noundef %3, i32 noundef %4)
  %5 = load ptr, ptr %bar, align 8
  %region = getelementptr inbounds %struct.VFIOBAR, ptr %5, i32 0, i32 0
  call void @vfio_region_exit(ptr noundef %region)
  %6 = load ptr, ptr %bar, align 8
  %region1 = getelementptr inbounds %struct.VFIOBAR, ptr %6, i32 0, i32 0
  %size = getelementptr inbounds %struct.VFIORegion, ptr %region1, i32 0, i32 3
  %7 = load i64, ptr %size, align 8
  %tobool = icmp ne i64 %7, 0
  br i1 %tobool, label %if.then, label %if.end

if.then:                                          ; preds = %for.body
  %8 = load ptr, ptr %bar, align 8
  %mr = getelementptr inbounds %struct.VFIOBAR, ptr %8, i32 0, i32 1
  %9 = load ptr, ptr %mr, align 8
  %10 = load ptr, ptr %bar, align 8
  %region2 = getelementptr inbounds %struct.VFIOBAR, ptr %10, i32 0, i32 0
  %mem = getelementptr inbounds %struct.VFIORegion, ptr %region2, i32 0, i32 2
  %11 = load ptr, ptr %mem, align 8
  call void @memory_region_del_subregion(ptr noundef %9, ptr noundef %11)
  br label %if.end

if.end:                                           ; preds = %if.then, %for.body
  br label %for.inc

for.inc:                                          ; preds = %if.end
  %12 = load i32, ptr %i, align 4
  %inc = add i32 %12, 1
  store i32 %inc, ptr %i, align 4
  br label %for.cond, !llvm.loop !33

for.end:                                          ; preds = %for.cond
  %13 = load ptr, ptr %vdev.addr, align 8
  %vga = getelementptr inbounds %struct.VFIOPCIDevice, ptr %13, i32 0, i32 15
  %14 = load ptr, ptr %vga, align 8
  %tobool3 = icmp ne ptr %14, null
  br i1 %tobool3, label %if.then4, label %if.end5

if.then4:                                         ; preds = %for.end
  %15 = load ptr, ptr %vdev.addr, align 8
  %pdev = getelementptr inbounds %struct.VFIOPCIDevice, ptr %15, i32 0, i32 0
  call void @pci_unregister_vga(ptr noundef %pdev)
  %16 = load ptr, ptr %vdev.addr, align 8
  call void @vfio_vga_quirk_exit(ptr noundef %16)
  br label %if.end5

if.end5:                                          ; preds = %if.then4, %for.end
  ret void
}