; Function Attrs: nounwind sspstrong uwtable
define internal fastcc void @vfio_bars_exit(ptr noundef %vdev) unnamed_addr #0 {
entry:
  %bars = getelementptr inbounds nuw i8, ptr %vdev, i64 2888
  br label %for.body

for.body:                                         ; preds = %entry, %for.inc
  %indvars.iv = phi i64 [ 0, %entry ], [ %indvars.iv.next, %for.inc ]
  %arrayidx = getelementptr [6 x %struct.VFIOBAR], ptr %bars, i64 0, i64 %indvars.iv
  %0 = trunc nuw nsw i64 %indvars.iv to i32
  tail call void @vfio_bar_quirk_exit(ptr noundef %vdev, i32 noundef %0) #23
  tail call void @vfio_region_exit(ptr noundef %arrayidx) #23
  %size = getelementptr inbounds nuw i8, ptr %arrayidx, i64 24
  %1 = load i64, ptr %size, align 8
  %tobool.not = icmp eq i64 %1, 0
  br i1 %tobool.not, label %for.inc, label %if.then

if.then:                                          ; preds = %for.body
  %mr = getelementptr inbounds nuw i8, ptr %arrayidx, i64 56
  %2 = load ptr, ptr %mr, align 8
  %mem = getelementptr inbounds nuw i8, ptr %arrayidx, i64 16
  %3 = load ptr, ptr %mem, align 8
  tail call void @memory_region_del_subregion(ptr noundef %2, ptr noundef %3) #23
  br label %for.inc

for.inc:                                          ; preds = %for.body, %if.then
  %indvars.iv.next = add nuw nsw i64 %indvars.iv, 1
  %exitcond.not = icmp eq i64 %indvars.iv.next, 6
  br i1 %exitcond.not, label %for.end, label %for.body, !llvm.loop !22

for.end:                                          ; preds = %for.inc
  %vga = getelementptr inbounds nuw i8, ptr %vdev, i64 3416
  %4 = load ptr, ptr %vga, align 8
  %tobool3.not = icmp eq ptr %4, null
  br i1 %tobool3.not, label %if.end5, label %if.then4

if.then4:                                         ; preds = %for.end
  tail call void @pci_unregister_vga(ptr noundef nonnull %vdev) #23
  tail call void @vfio_vga_quirk_exit(ptr noundef nonnull %vdev) #23
  br label %if.end5

if.end5:                                          ; preds = %if.then4, %for.end
  ret void
}